; Function Attrs: mustprogress nounwind uwtable
define internal void @_ZN12_GLOBAL__N_19DemanglerD2Ev(ptr nocapture noundef nonnull align 8 dereferenceable(200) %this) unnamed_addr #2 align 2 {
entry:
  store ptr getelementptr inbounds ({ [4 x ptr] }, ptr @_ZTVN12_GLOBAL__N_19DemanglerE, i64 0, i32 0, i64 2), ptr %this, align 8
  %Arena = getelementptr inbounds i8, ptr %this, i64 16
  %.pr.i = load ptr, ptr %Arena, align 8
  %tobool.not3.i = icmp eq ptr %.pr.i, null
  br i1 %tobool.not3.i, label %_ZN4llvh11ms_demangle14ArenaAllocatorD2Ev.exit, label %while.body.i

while.body.i:                                     ; preds = %entry, %delete.end8.i
  %0 = phi ptr [ %3, %delete.end8.i ], [ %.pr.i, %entry ]
  %1 = load ptr, ptr %0, align 8
  %isnull.i = icmp eq ptr %1, null
  br i1 %isnull.i, label %delete.end8.i, label %delete.notnull.i

delete.notnull.i:                                 ; preds = %while.body.i
  tail call void @_ZdaPv(ptr noundef nonnull %1) #26
  %.pre.i = load ptr, ptr %Arena, align 8
  br label %delete.end8.i

delete.end8.i:                                    ; preds = %delete.notnull.i, %while.body.i
  %2 = phi ptr [ %.pre.i, %delete.notnull.i ], [ %0, %while.body.i ]
  %Next4.i = getelementptr inbounds i8, ptr %2, i64 24
  %3 = load ptr, ptr %Next4.i, align 8
  tail call void @_ZdlPv(ptr noundef %2) #26
  store ptr %3, ptr %Arena, align 8
  %tobool.not.i = icmp eq ptr %3, null
  br i1 %tobool.not.i, label %_ZN4llvh11ms_demangle14ArenaAllocatorD2Ev.exit, label %while.body.i, !llvm.loop !9

_ZN4llvh11ms_demangle14ArenaAllocatorD2Ev.exit:   ; preds = %delete.end8.i, %entry
  ret void
}